; Function Attrs: mustprogress nofree norecurse nosync nounwind willreturn memory(read, inaccessiblemem: none) uwtable
define range(i32 -2, 2) i32 @inflateSyncPoint(ptr noundef readonly %0) local_unnamed_addr #6 {
  %2 = icmp eq ptr %0, null
  br i1 %2, label %15, label %3

3:                                                ; preds = %1
  %4 = getelementptr inbounds nuw i8, ptr %0, i64 56
  %5 = load ptr, ptr %4, align 8, !tbaa !3
  %6 = icmp eq ptr %5, null
  br i1 %6, label %15, label %7

7:                                                ; preds = %3
  %8 = load i32, ptr %5, align 8, !tbaa !18
  %9 = icmp eq i32 %8, 13
  br i1 %9, label %10, label %15

10:                                               ; preds = %7
  %11 = getelementptr inbounds nuw i8, ptr %5, i64 80
  %12 = load i32, ptr %11, align 8, !tbaa !24
  %13 = icmp eq i32 %12, 0
  %14 = zext i1 %13 to i32
  br label %15

15:                                               ; preds = %7, %10, %1, %3
  %.0 = phi i32 [ -2, %3 ], [ -2, %1 ], [ 0, %7 ], [ %14, %10 ]
  ret i32 %.0
}